; Function Attrs: mustprogress uwtable
define void @_ZN5faiss11IndexIVFPQRC2EPNS_5IndexEmmmmmm(ptr noundef nonnull align 8 dereferenceable(788) %0, ptr noundef %1, i64 noundef %2, i64 noundef %3, i64 noundef %4, i64 noundef %5, i64 noundef %6, i64 noundef %7) unnamed_addr #2 align 2 personality ptr @__gxx_personality_v0 {
  tail call void @_ZN5faiss10IndexIVFPQC2EPNS_5IndexEmmmmNS_10MetricTypeE(ptr noundef nonnull align 8 dereferenceable(544) %0, ptr noundef %1, i64 noundef %2, i64 noundef %3, i64 noundef %4, i64 noundef %5, i32 noundef 1)
  store ptr getelementptr inbounds nuw inrange(-16, 272) (i8, ptr @_ZTVN5faiss11IndexIVFPQRE, i64 16), ptr %0, align 8, !tbaa !4
  %9 = getelementptr inbounds nuw i8, ptr %0, i64 40
  store ptr getelementptr inbounds nuw inrange(-16, 32) (i8, ptr @_ZTVN5faiss11IndexIVFPQRE, i64 304), ptr %9, align 8, !tbaa !4
  %10 = getelementptr inbounds nuw i8, ptr %0, i64 544
  invoke void @_ZN5faiss16ProductQuantizerC1Emmm(ptr noundef nonnull align 8 dereferenceable(216) %10, i64 noundef %2, i64 noundef %6, i64 noundef %7)
          to label %11 unwind label %16

11:                                               ; preds = %8
  %12 = getelementptr inbounds nuw i8, ptr %0, i64 760
  tail call void @llvm.memset.p0.i64(ptr noundef nonnull align 8 dereferenceable(24) %12, i8 0, i64 24, i1 false)
  %13 = getelementptr inbounds nuw i8, ptr %0, i64 784
  store float 4.000000e+00, ptr %13, align 8, !tbaa !85
  %14 = getelementptr inbounds nuw i8, ptr %0, i64 264
  store i8 1, ptr %14, align 8, !tbaa !92
  %15 = getelementptr inbounds nuw i8, ptr %0, i64 628
  store i32 1000, ptr %15, align 4, !tbaa !80
  ret void

16:                                               ; preds = %8
  %17 = landingpad { ptr, i32 }
          cleanup
  tail call void @_ZN5faiss10IndexIVFPQD2Ev(ptr noundef nonnull align 8 dereferenceable(544) %0) #19
  resume { ptr, i32 } %17
}